target datalayout = "e-m:e-p270:32:32-p271:32:32-p272:64:64-i64:64-i128:128-f80:128-n8:16:32:64-S128"
target triple = "x86_64-unknown-linux-gnu"

%struct.acpi_scan_handler = type { ptr, %struct.list_head, ptr, ptr, ptr, ptr, ptr, %struct.acpi_hotplug_profile }
%struct.list_head = type { ptr, ptr }
%struct.acpi_hotplug_profile = type { %struct.kobject, ptr, ptr, i8 }
%struct.kobject = type { ptr, %struct.list_head, ptr, ptr, ptr, ptr, %struct.kref, i8 }
%struct.kref = type { %struct.refcount_struct }
%struct.refcount_struct = type { %struct.atomic_t }
%struct.atomic_t = type { i32 }
%struct.acpi_device_id = type { [16 x i8], i64, i32, i32 }

@int340x_thermal_handler = internal global %struct.acpi_scan_handler { ptr @int340x_thermal_device_ids, %struct.list_head zeroinitializer, ptr null, ptr @int340x_thermal_handler_attach, ptr null, ptr null, ptr null, %struct.acpi_hotplug_profile zeroinitializer }, align 8
@int340x_thermal_device_ids = internal constant [37 x %struct.acpi_device_id] [%struct.acpi_device_id { [16 x i8] c"INT3400\00\00\00\00\00\00\00\00\00", i64 0, i32 0, i32 0 }, %struct.acpi_device_id { [16 x i8] c"INT3401\00\00\00\00\00\00\00\00\00", i64 1, i32 0, i32 0 }, %struct.acpi_device_id { [16 x i8] c"INT3402\00\00\00\00\00\00\00\00\00", i64 0, i32 0, i32 0 }, %struct.acpi_device_id { [16 x i8] c"INT3403\00\00\00\00\00\00\00\00\00", i64 0, i32 0, i32 0 }, %struct.acpi_device_id { [16 x i8] c"INT3404\00\00\00\00\00\00\00\00\00", i64 0, i32 0, i32 0 }, %struct.acpi_device_id { [16 x i8] c"INT3406\00\00\00\00\00\00\00\00\00", i64 0, i32 0, i32 0 }, %struct.acpi_device_id { [16 x i8] c"INT3407\00\00\00\00\00\00\00\00\00", i64 0, i32 0, i32 0 }, %struct.acpi_device_id { [16 x i8] c"INT3408\00\00\00\00\00\00\00\00\00", i64 0, i32 0, i32 0 }, %struct.acpi_device_id { [16 x i8] c"INT3409\00\00\00\00\00\00\00\00\00", i64 0, i32 0, i32 0 }, %struct.acpi_device_id { [16 x i8] c"INT340A\00\00\00\00\00\00\00\00\00", i64 0, i32 0, i32 0 }, %struct.acpi_device_id { [16 x i8] c"INT340B\00\00\00\00\00\00\00\00\00", i64 0, i32 0, i32 0 }, %struct.acpi_device_id { [16 x i8] c"INT3532\00\00\00\00\00\00\00\00\00", i64 0, i32 0, i32 0 }, %struct.acpi_device_id { [16 x i8] c"INTC1040\00\00\00\00\00\00\00\00", i64 0, i32 0, i32 0 }, %struct.acpi_device_id { [16 x i8] c"INTC1041\00\00\00\00\00\00\00\00", i64 0, i32 0, i32 0 }, %struct.acpi_device_id { [16 x i8] c"INTC1042\00\00\00\00\00\00\00\00", i64 0, i32 0, i32 0 }, %struct.acpi_device_id { [16 x i8] c"INTC1043\00\00\00\00\00\00\00\00", i64 0, i32 0, i32 0 }, %struct.acpi_device_id { [16 x i8] c"INTC1044\00\00\00\00\00\00\00\00", i64 0, i32 0, i32 0 }, %struct.acpi_device_id { [16 x i8] c"INTC1045\00\00\00\00\00\00\00\00", i64 0, i32 0, i32 0 }, %struct.acpi_device_id { [16 x i8] c"INTC1046\00\00\00\00\00\00\00\00", i64 0, i32 0, i32 0 }, %struct.acpi_device_id { [16 x i8] c"INTC1047\00\00\00\00\00\00\00\00", i64 0, i32 0, i32 0 }, %struct.acpi_device_id { [16 x i8] c"INTC1048\00\00\00\00\00\00\00\00", i64 0, i32 0, i32 0 }, %struct.acpi_device_id { [16 x i8] c"INTC1049\00\00\00\00\00\00\00\00", i64 0, i32 0, i32 0 }, %struct.acpi_device_id { [16 x i8] c"INTC1050\00\00\00\00\00\00\00\00", i64 0, i32 0, i32 0 }, %struct.acpi_device_id { [16 x i8] c"INTC1060\00\00\00\00\00\00\00\00", i64 0, i32 0, i32 0 }, %struct.acpi_device_id { [16 x i8] c"INTC1061\00\00\00\00\00\00\00\00", i64 0, i32 0, i32 0 }, %struct.acpi_device_id { [16 x i8] c"INTC1062\00\00\00\00\00\00\00\00", i64 0, i32 0, i32 0 }, %struct.acpi_device_id { [16 x i8] c"INTC1063\00\00\00\00\00\00\00\00", i64 0, i32 0, i32 0 }, %struct.acpi_device_id { [16 x i8] c"INTC1064\00\00\00\00\00\00\00\00", i64 0, i32 0, i32 0 }, %struct.acpi_device_id { [16 x i8] c"INTC1065\00\00\00\00\00\00\00\00", i64 0, i32 0, i32 0 }, %struct.acpi_device_id { [16 x i8] c"INTC1066\00\00\00\00\00\00\00\00", i64 0, i32 0, i32 0 }, %struct.acpi_device_id { [16 x i8] c"INTC10A0\00\00\00\00\00\00\00\00", i64 0, i32 0, i32 0 }, %struct.acpi_device_id { [16 x i8] c"INTC10A1\00\00\00\00\00\00\00\00", i64 0, i32 0, i32 0 }, %struct.acpi_device_id { [16 x i8] c"INTC10A2\00\00\00\00\00\00\00\00", i64 0, i32 0, i32 0 }, %struct.acpi_device_id { [16 x i8] c"INTC10A3\00\00\00\00\00\00\00\00", i64 0, i32 0, i32 0 }, %struct.acpi_device_id { [16 x i8] c"INTC10A4\00\00\00\00\00\00\00\00", i64 0, i32 0, i32 0 }, %struct.acpi_device_id { [16 x i8] c"INTC10A5\00\00\00\00\00\00\00\00", i64 0, i32 0, i32 0 }, %struct.acpi_device_id zeroinitializer], align 16

; Function Attrs: cold fn_ret_thunk_extern nounwind null_pointer_is_valid optsize
define dso_local void @acpi_int340x_thermal_init() local_unnamed_addr #0 section ".init.text" align 16 {
  %1 = tail call i32 @acpi_scan_add_handler(ptr noundef nonnull @int340x_thermal_handler) #3
  ret void
}

; Function Attrs: null_pointer_is_valid
declare dso_local i32 @acpi_scan_add_handler(ptr noundef) local_unnamed_addr #1

; Function Attrs: fn_ret_thunk_extern mustprogress nofree norecurse nosync nounwind null_pointer_is_valid willreturn memory(none)
define internal noundef i32 @int340x_thermal_handler_attach(ptr nocapture readnone %0, ptr nocapture readnone %1) #2 align 16 {
  ret i32 1
}


!llvm.module.flags = !{!0, !1, !2, !3, !4}

!0 = !{i32 1, !"wchar_size", i32 2}
!1 = !{i32 8, !"cf-protection-branch", i32 1}
!2 = !{i32 4, !"function_return_thunk_extern", i32 1}
!3 = !{i32 4, !"indirect_branch_cs_prefix", i32 1}
!4 = !{i32 4, !"SkipRaxSetup", i32 1}
